                                      1 ;--------------------------------------------------------
                                      2 ; File Created by SDCC : free open source ISO C Compiler 
                                      3 ; Version 4.2.2 #13350 (MINGW64)
                                      4 ;--------------------------------------------------------
                                      5 	.module animate
                                      6 	.optsdcc -msm83
                                      7 	
                                      8 ;--------------------------------------------------------
                                      9 ; Public variables in this module
                                     10 ;--------------------------------------------------------
                                     11 	.globl _vmemcpy
                                     12 	.globl _scanline_player_graphics_upload
                                     13 	.globl _setPlayerFrameMap
                                     14 	.globl _animatePlayer
                                     15 	.globl _setEnemyFrameMap
                                     16 ;--------------------------------------------------------
                                     17 ; special function registers
                                     18 ;--------------------------------------------------------
                                     19 ;--------------------------------------------------------
                                     20 ; ram data
                                     21 ;--------------------------------------------------------
                                     22 	.area _DATA
                                     23 ;--------------------------------------------------------
                                     24 ; ram data
                                     25 ;--------------------------------------------------------
                                     26 	.area _INITIALIZED
                                     27 ;--------------------------------------------------------
                                     28 ; absolute external ram data
                                     29 ;--------------------------------------------------------
                                     30 	.area _DABS (ABS)
                                     31 ;--------------------------------------------------------
                                     32 ; global & static initialisations
                                     33 ;--------------------------------------------------------
                                     34 	.area _HOME
                                     35 	.area _GSINIT
                                     36 	.area _GSFINAL
                                     37 	.area _GSINIT
                                     38 ;--------------------------------------------------------
                                     39 ; Home
                                     40 ;--------------------------------------------------------
                                     41 	.area _HOME
                                     42 	.area _HOME
                                     43 ;--------------------------------------------------------
                                     44 ; code
                                     45 ;--------------------------------------------------------
                                     46 	.area _CODE
                           000000    47 	G$scanline_player_graphics_upload$0$0	= .
                                     48 	.globl	G$scanline_player_graphics_upload$0$0
                           000000    49 	C$animate.c$34$0_0$133	= .
                                     50 	.globl	C$animate.c$34$0_0$133
                                     51 ;src/animate.c:34: void scanline_player_graphics_upload() {
                                     52 ;	---------------------------------
                                     53 ; Function scanline_player_graphics_upload
                                     54 ; ---------------------------------
      000000                         55 _scanline_player_graphics_upload::
                           000000    56 	C$animate.c$35$1_0$133	= .
                                     57 	.globl	C$animate.c$35$1_0$133
                                     58 ;src/animate.c:35: vmemcpy(_VRAM8000+0+((dub_buffer_counter & 1)<<8), player_tiles+player_tile_locations[0], 32);
      000000 21r00r00         [12]   59 	ld	hl, #_player_tile_locations
      000003 2A               [ 8]   60 	ld	a, (hl+)
      000004 4F               [ 4]   61 	ld	c, a
      000005 46               [ 8]   62 	ld	b, (hl)
      000006 21r00r00         [12]   63 	ld	hl, #_player_tiles
      000009 09               [ 8]   64 	add	hl, bc
      00000A 4D               [ 4]   65 	ld	c, l
      00000B 44               [ 4]   66 	ld	b, h
      00000C FAr00r00         [16]   67 	ld	a, (#_dub_buffer_counter)
      00000F E6 01            [ 8]   68 	and	a, #0x01
      000011 57               [ 4]   69 	ld	d, a
      000012 1E 00            [ 8]   70 	ld	e, #0x00
      000014 21r00r00         [12]   71 	ld	hl, #__VRAM8000
      000017 19               [ 8]   72 	add	hl, de
      000018 11 20 00         [12]   73 	ld	de, #0x0020
      00001B D5               [16]   74 	push	de
      00001C C5               [16]   75 	push	bc
      00001D E5               [16]   76 	push	hl
      00001E CDr00r00         [24]   77 	call	_vmemcpy
      000021 E8 06            [16]   78 	add	sp, #6
                           000023    79 	C$animate.c$36$1_0$133	= .
                                     80 	.globl	C$animate.c$36$1_0$133
                                     81 ;src/animate.c:36: vmemcpy(_VRAM8000+32+((dub_buffer_counter & 1)<<8), player_tiles+player_tile_locations[1], 32);
      000023 21r02r00         [12]   82 	ld	hl, #_player_tile_locations + 2
      000026 2A               [ 8]   83 	ld	a, (hl+)
      000027 4F               [ 4]   84 	ld	c, a
      000028 46               [ 8]   85 	ld	b, (hl)
      000029 21r00r00         [12]   86 	ld	hl, #_player_tiles
      00002C 09               [ 8]   87 	add	hl, bc
      00002D 4D               [ 4]   88 	ld	c, l
      00002E 44               [ 4]   89 	ld	b, h
      00002F FAr00r00         [16]   90 	ld	a, (#_dub_buffer_counter)
      000032 E6 01            [ 8]   91 	and	a, #0x01
      000034 57               [ 4]   92 	ld	d, a
      000035 1E 00            [ 8]   93 	ld	e, #0x00
      000037 21r20r00         [12]   94 	ld	hl, #(__VRAM8000 + 32)
      00003A 19               [ 8]   95 	add	hl, de
      00003B 11 20 00         [12]   96 	ld	de, #0x0020
      00003E D5               [16]   97 	push	de
      00003F C5               [16]   98 	push	bc
      000040 E5               [16]   99 	push	hl
      000041 CDr00r00         [24]  100 	call	_vmemcpy
      000044 E8 06            [16]  101 	add	sp, #6
                           000046   102 	C$animate.c$37$1_0$133	= .
                                    103 	.globl	C$animate.c$37$1_0$133
                                    104 ;src/animate.c:37: vmemcpy(_VRAM8000+64+((dub_buffer_counter & 1)<<8), player_tiles+player_tile_locations[2], 32);
      000046 21r04r00         [12]  105 	ld	hl, #_player_tile_locations + 4
      000049 2A               [ 8]  106 	ld	a, (hl+)
      00004A 4F               [ 4]  107 	ld	c, a
      00004B 46               [ 8]  108 	ld	b, (hl)
      00004C 21r00r00         [12]  109 	ld	hl, #_player_tiles
      00004F 09               [ 8]  110 	add	hl, bc
      000050 4D               [ 4]  111 	ld	c, l
      000051 44               [ 4]  112 	ld	b, h
      000052 11r40r00         [12]  113 	ld	de, #__VRAM8000 + 64
                                    114 ;	spillPairReg hl
                                    115 ;	spillPairReg hl
                                    116 ;	spillPairReg hl
                                    117 ;	spillPairReg hl
      000055 FAr00r00         [16]  118 	ld	a, (#_dub_buffer_counter)
      000058 E6 01            [ 8]  119 	and	a, #0x01
                                    120 ;	spillPairReg hl
                                    121 ;	spillPairReg hl
      00005A 67               [ 4]  122 	ld	h, a
                                    123 ;	spillPairReg hl
                                    124 ;	spillPairReg hl
      00005B 2E 00            [ 8]  125 	ld	l, #0x00
                                    126 ;	spillPairReg hl
                                    127 ;	spillPairReg hl
      00005D 19               [ 8]  128 	add	hl, de
      00005E 11 20 00         [12]  129 	ld	de, #0x0020
      000061 D5               [16]  130 	push	de
      000062 C5               [16]  131 	push	bc
      000063 E5               [16]  132 	push	hl
      000064 CDr00r00         [24]  133 	call	_vmemcpy
      000067 E8 06            [16]  134 	add	sp, #6
                           000069   135 	C$animate.c$38$1_0$133	= .
                                    136 	.globl	C$animate.c$38$1_0$133
                                    137 ;src/animate.c:38: vmemcpy(_VRAM8000+96+((dub_buffer_counter & 1)<<8), player_tiles+player_tile_locations[3], 32);
      000069 21r06r00         [12]  138 	ld	hl, #_player_tile_locations + 6
      00006C 2A               [ 8]  139 	ld	a, (hl+)
      00006D 4F               [ 4]  140 	ld	c, a
      00006E 46               [ 8]  141 	ld	b, (hl)
      00006F 21r00r00         [12]  142 	ld	hl, #_player_tiles
      000072 09               [ 8]  143 	add	hl, bc
      000073 4D               [ 4]  144 	ld	c, l
      000074 44               [ 4]  145 	ld	b, h
      000075 11r60r00         [12]  146 	ld	de, #__VRAM8000 + 96
                                    147 ;	spillPairReg hl
                                    148 ;	spillPairReg hl
                                    149 ;	spillPairReg hl
                                    150 ;	spillPairReg hl
      000078 FAr00r00         [16]  151 	ld	a, (#_dub_buffer_counter)
      00007B E6 01            [ 8]  152 	and	a, #0x01
                                    153 ;	spillPairReg hl
                                    154 ;	spillPairReg hl
      00007D 67               [ 4]  155 	ld	h, a
                                    156 ;	spillPairReg hl
                                    157 ;	spillPairReg hl
      00007E 2E 00            [ 8]  158 	ld	l, #0x00
                                    159 ;	spillPairReg hl
                                    160 ;	spillPairReg hl
      000080 19               [ 8]  161 	add	hl, de
      000081 11 20 00         [12]  162 	ld	de, #0x0020
      000084 D5               [16]  163 	push	de
      000085 C5               [16]  164 	push	bc
      000086 E5               [16]  165 	push	hl
      000087 CDr00r00         [24]  166 	call	_vmemcpy
      00008A E8 06            [16]  167 	add	sp, #6
                           00008C   168 	C$animate.c$39$1_0$133	= .
                                    169 	.globl	C$animate.c$39$1_0$133
                                    170 ;src/animate.c:39: vmemcpy(_VRAM8000+128+((dub_buffer_counter & 1)<<8), player_tiles+player_tile_locations[4], 32);
      00008C 21r08r00         [12]  171 	ld	hl, #_player_tile_locations + 8
      00008F 2A               [ 8]  172 	ld	a, (hl+)
      000090 4F               [ 4]  173 	ld	c, a
      000091 46               [ 8]  174 	ld	b, (hl)
      000092 21r00r00         [12]  175 	ld	hl, #_player_tiles
      000095 09               [ 8]  176 	add	hl, bc
      000096 4D               [ 4]  177 	ld	c, l
      000097 44               [ 4]  178 	ld	b, h
      000098 11r80r00         [12]  179 	ld	de, #__VRAM8000 + 128
                                    180 ;	spillPairReg hl
                                    181 ;	spillPairReg hl
                                    182 ;	spillPairReg hl
                                    183 ;	spillPairReg hl
      00009B FAr00r00         [16]  184 	ld	a, (#_dub_buffer_counter)
      00009E E6 01            [ 8]  185 	and	a, #0x01
                                    186 ;	spillPairReg hl
                                    187 ;	spillPairReg hl
      0000A0 67               [ 4]  188 	ld	h, a
                                    189 ;	spillPairReg hl
                                    190 ;	spillPairReg hl
      0000A1 2E 00            [ 8]  191 	ld	l, #0x00
                                    192 ;	spillPairReg hl
                                    193 ;	spillPairReg hl
      0000A3 19               [ 8]  194 	add	hl, de
      0000A4 11 20 00         [12]  195 	ld	de, #0x0020
      0000A7 D5               [16]  196 	push	de
      0000A8 C5               [16]  197 	push	bc
      0000A9 E5               [16]  198 	push	hl
      0000AA CDr00r00         [24]  199 	call	_vmemcpy
      0000AD E8 06            [16]  200 	add	sp, #6
                           0000AF   201 	C$animate.c$40$1_0$133	= .
                                    202 	.globl	C$animate.c$40$1_0$133
                                    203 ;src/animate.c:40: vmemcpy(_VRAM8000+160+((dub_buffer_counter & 1)<<8), player_tiles+player_tile_locations[5], 32);
      0000AF 21r0Ar00         [12]  204 	ld	hl, #_player_tile_locations + 10
      0000B2 2A               [ 8]  205 	ld	a, (hl+)
      0000B3 4F               [ 4]  206 	ld	c, a
      0000B4 46               [ 8]  207 	ld	b, (hl)
      0000B5 21r00r00         [12]  208 	ld	hl, #_player_tiles
      0000B8 09               [ 8]  209 	add	hl, bc
      0000B9 4D               [ 4]  210 	ld	c, l
      0000BA 44               [ 4]  211 	ld	b, h
      0000BB 11rA0r00         [12]  212 	ld	de, #__VRAM8000 + 160
                                    213 ;	spillPairReg hl
                                    214 ;	spillPairReg hl
                                    215 ;	spillPairReg hl
                                    216 ;	spillPairReg hl
      0000BE FAr00r00         [16]  217 	ld	a, (#_dub_buffer_counter)
      0000C1 E6 01            [ 8]  218 	and	a, #0x01
                                    219 ;	spillPairReg hl
                                    220 ;	spillPairReg hl
      0000C3 67               [ 4]  221 	ld	h, a
                                    222 ;	spillPairReg hl
                                    223 ;	spillPairReg hl
      0000C4 2E 00            [ 8]  224 	ld	l, #0x00
                                    225 ;	spillPairReg hl
                                    226 ;	spillPairReg hl
      0000C6 19               [ 8]  227 	add	hl, de
      0000C7 11 20 00         [12]  228 	ld	de, #0x0020
      0000CA D5               [16]  229 	push	de
      0000CB C5               [16]  230 	push	bc
      0000CC E5               [16]  231 	push	hl
      0000CD CDr00r00         [24]  232 	call	_vmemcpy
      0000D0 E8 06            [16]  233 	add	sp, #6
                           0000D2   234 	C$animate.c$41$1_0$133	= .
                                    235 	.globl	C$animate.c$41$1_0$133
                                    236 ;src/animate.c:41: vmemcpy(_VRAM8000+192+((dub_buffer_counter & 1)<<8), player_tiles+player_tile_locations[6], 32);
      0000D2 21r0Cr00         [12]  237 	ld	hl, #_player_tile_locations + 12
      0000D5 2A               [ 8]  238 	ld	a, (hl+)
      0000D6 4F               [ 4]  239 	ld	c, a
      0000D7 46               [ 8]  240 	ld	b, (hl)
      0000D8 21r00r00         [12]  241 	ld	hl, #_player_tiles
      0000DB 09               [ 8]  242 	add	hl, bc
      0000DC 4D               [ 4]  243 	ld	c, l
      0000DD 44               [ 4]  244 	ld	b, h
      0000DE 11rC0r00         [12]  245 	ld	de, #__VRAM8000 + 192
                                    246 ;	spillPairReg hl
                                    247 ;	spillPairReg hl
                                    248 ;	spillPairReg hl
                                    249 ;	spillPairReg hl
      0000E1 FAr00r00         [16]  250 	ld	a, (#_dub_buffer_counter)
      0000E4 E6 01            [ 8]  251 	and	a, #0x01
                                    252 ;	spillPairReg hl
                                    253 ;	spillPairReg hl
      0000E6 67               [ 4]  254 	ld	h, a
                                    255 ;	spillPairReg hl
                                    256 ;	spillPairReg hl
      0000E7 2E 00            [ 8]  257 	ld	l, #0x00
                                    258 ;	spillPairReg hl
                                    259 ;	spillPairReg hl
      0000E9 19               [ 8]  260 	add	hl, de
      0000EA 11 20 00         [12]  261 	ld	de, #0x0020
      0000ED D5               [16]  262 	push	de
      0000EE C5               [16]  263 	push	bc
      0000EF E5               [16]  264 	push	hl
      0000F0 CDr00r00         [24]  265 	call	_vmemcpy
      0000F3 E8 06            [16]  266 	add	sp, #6
                           0000F5   267 	C$animate.c$42$1_0$133	= .
                                    268 	.globl	C$animate.c$42$1_0$133
                                    269 ;src/animate.c:42: vmemcpy(_VRAM8000+224+((dub_buffer_counter & 1)<<8), player_tiles+player_tile_locations[7], 32);
      0000F5 21r0Er00         [12]  270 	ld	hl, #_player_tile_locations + 14
      0000F8 2A               [ 8]  271 	ld	a, (hl+)
      0000F9 4F               [ 4]  272 	ld	c, a
      0000FA 46               [ 8]  273 	ld	b, (hl)
      0000FB 21r00r00         [12]  274 	ld	hl, #_player_tiles
      0000FE 09               [ 8]  275 	add	hl, bc
      0000FF 4D               [ 4]  276 	ld	c, l
      000100 44               [ 4]  277 	ld	b, h
      000101 11rE0r00         [12]  278 	ld	de, #__VRAM8000 + 224
                                    279 ;	spillPairReg hl
                                    280 ;	spillPairReg hl
                                    281 ;	spillPairReg hl
                                    282 ;	spillPairReg hl
      000104 FAr00r00         [16]  283 	ld	a, (#_dub_buffer_counter)
      000107 E6 01            [ 8]  284 	and	a, #0x01
                                    285 ;	spillPairReg hl
                                    286 ;	spillPairReg hl
      000109 67               [ 4]  287 	ld	h, a
                                    288 ;	spillPairReg hl
                                    289 ;	spillPairReg hl
      00010A 2E 00            [ 8]  290 	ld	l, #0x00
                                    291 ;	spillPairReg hl
                                    292 ;	spillPairReg hl
      00010C 19               [ 8]  293 	add	hl, de
      00010D 11 20 00         [12]  294 	ld	de, #0x0020
      000110 D5               [16]  295 	push	de
      000111 C5               [16]  296 	push	bc
      000112 E5               [16]  297 	push	hl
      000113 CDr00r00         [24]  298 	call	_vmemcpy
      000116 E8 06            [16]  299 	add	sp, #6
                           000118   300 	C$animate.c$55$1_0$133	= .
                                    301 	.globl	C$animate.c$55$1_0$133
                                    302 ;src/animate.c:55: dub_buffer_counter++;
      000118 21r00r00         [12]  303 	ld	hl, #_dub_buffer_counter
      00011B 34               [12]  304 	inc	(hl)
                           00011C   305 	C$animate.c$56$1_0$133	= .
                                    306 	.globl	C$animate.c$56$1_0$133
                                    307 ;src/animate.c:56: }
                           00011C   308 	C$animate.c$56$1_0$133	= .
                                    309 	.globl	C$animate.c$56$1_0$133
                           00011C   310 	XG$scanline_player_graphics_upload$0$0	= .
                                    311 	.globl	XG$scanline_player_graphics_upload$0$0
      00011C C9               [16]  312 	ret
                           00011D   313 	G$setPlayerFrameMap$0$0	= .
                                    314 	.globl	G$setPlayerFrameMap$0$0
                           00011D   315 	C$animate.c$58$1_0$135	= .
                                    316 	.globl	C$animate.c$58$1_0$135
                                    317 ;src/animate.c:58: void setPlayerFrameMap(uint8_t spritemap_index) {
                                    318 ;	---------------------------------
                                    319 ; Function setPlayerFrameMap
                                    320 ; ---------------------------------
      00011D                        321 _setPlayerFrameMap::
      00011D E8 FA            [16]  322 	add	sp, #-6
      00011F F8 04            [12]  323 	ldhl	sp,	#4
                           000121   324 	C$animate.c$62$3_0$137	= .
                                    325 	.globl	C$animate.c$62$3_0$137
                                    326 ;src/animate.c:62: for (uint8_t i = 0; i < 8; i++) {
      000121 22               [ 8]  327 	ld	(hl+), a
      000122 36 00            [12]  328 	ld	(hl), #0x00
      000124                        329 00123$:
      000124 F8 05            [12]  330 	ldhl	sp,	#5
      000126 7E               [ 8]  331 	ld	a, (hl)
      000127 D6 08            [ 8]  332 	sub	a, #0x08
      000129 30 47            [12]  333 	jr	NC, 00101$
                           00012B   334 	C$animate.c$63$3_0$137	= .
                                    335 	.globl	C$animate.c$63$3_0$137
                                    336 ;src/animate.c:63: player_tile_locations[i]=smtilesources[(spritemap_index<<3)+i]<<5;
      00012B 7E               [ 8]  337 	ld	a, (hl)
      00012C F8 00            [12]  338 	ldhl	sp,	#0
      00012E 22               [ 8]  339 	ld	(hl+), a
      00012F AF               [ 4]  340 	xor	a, a
      000130 32               [ 8]  341 	ld	(hl-), a
      000131 2A               [ 8]  342 	ld	a, (hl+)
      000132 23               [ 8]  343 	inc	hl
      000133 32               [ 8]  344 	ld	(hl-), a
      000134 2A               [ 8]  345 	ld	a, (hl+)
      000135 23               [ 8]  346 	inc	hl
      000136 32               [ 8]  347 	ld	(hl-), a
      000137 CB 26            [16]  348 	sla	(hl)
      000139 23               [ 8]  349 	inc	hl
      00013A CB 16            [16]  350 	rl	(hl)
      00013C 11r00r00         [12]  351 	ld	de, #_player_tile_locations
      00013F 3A               [ 8]  352 	ld	a, (hl-)
      000140 6E               [ 8]  353 	ld	l, (hl)
      000141 67               [ 4]  354 	ld	h, a
      000142 19               [ 8]  355 	add	hl, de
      000143 4D               [ 4]  356 	ld	c, l
      000144 44               [ 4]  357 	ld	b, h
      000145 F8 04            [12]  358 	ldhl	sp,	#4
      000147 5E               [ 8]  359 	ld	e, (hl)
      000148 16 00            [ 8]  360 	ld	d, #0x00
      00014A 7B               [ 4]  361 	ld	a, e
      00014B 87               [ 4]  362 	add	a, a
      00014C CB 12            [ 8]  363 	rl	d
      00014E 87               [ 4]  364 	add	a, a
      00014F CB 12            [ 8]  365 	rl	d
      000151 87               [ 4]  366 	add	a, a
      000152 CB 12            [ 8]  367 	rl	d
      000154 5F               [ 4]  368 	ld	e, a
      000155 E1               [12]  369 	pop	hl
      000156 E5               [16]  370 	push	hl
      000157 19               [ 8]  371 	add	hl, de
      000158 5D               [ 4]  372 	ld	e, l
      000159 54               [ 4]  373 	ld	d, h
      00015A 21r00r00         [12]  374 	ld	hl, #_smtilesources
      00015D 19               [ 8]  375 	add	hl, de
      00015E 6E               [ 8]  376 	ld	l, (hl)
                                    377 ;	spillPairReg hl
      00015F 26 00            [ 8]  378 	ld	h, #0x00
                                    379 ;	spillPairReg hl
                                    380 ;	spillPairReg hl
      000161 29               [ 8]  381 	add	hl, hl
      000162 29               [ 8]  382 	add	hl, hl
      000163 29               [ 8]  383 	add	hl, hl
      000164 29               [ 8]  384 	add	hl, hl
      000165 29               [ 8]  385 	add	hl, hl
      000166 5D               [ 4]  386 	ld	e, l
      000167 54               [ 4]  387 	ld	d, h
      000168 7B               [ 4]  388 	ld	a, e
      000169 02               [ 8]  389 	ld	(bc), a
      00016A 03               [ 8]  390 	inc	bc
      00016B 7A               [ 4]  391 	ld	a, d
      00016C 02               [ 8]  392 	ld	(bc), a
                           00016D   393 	C$animate.c$62$2_0$136	= .
                                    394 	.globl	C$animate.c$62$2_0$136
                                    395 ;src/animate.c:62: for (uint8_t i = 0; i < 8; i++) {
      00016D F8 05            [12]  396 	ldhl	sp,	#5
      00016F 34               [12]  397 	inc	(hl)
      000170 18 B2            [12]  398 	jr	00123$
      000172                        399 00101$:
                           000172   400 	C$animate.c$66$1_0$135	= .
                                    401 	.globl	C$animate.c$66$1_0$135
                                    402 ;src/animate.c:66: if ((dub_buffer_counter & 1) == 0) {
      000172 FAr00r00         [16]  403 	ld	a, (#_dub_buffer_counter)
      000175 0F               [ 4]  404 	rrca
      000176 38 2A            [12]  405 	jr	C, 00103$
                                    406 ;C:/Users/JennyR/Documents/Nikku4211Archive/GBA/GBDev/GBDK/include/gb/gb.h:1602: shadow_OAM[nb].tile=tile;
      000178 21r02r00         [12]  407 	ld	hl, #(_shadow_OAM + 2)
      00017B 36 00            [12]  408 	ld	(hl), #0x00
      00017D 21r06r00         [12]  409 	ld	hl, #(_shadow_OAM + 6)
      000180 36 02            [12]  410 	ld	(hl), #0x02
      000182 21r0Ar00         [12]  411 	ld	hl, #(_shadow_OAM + 10)
      000185 36 04            [12]  412 	ld	(hl), #0x04
      000187 21r0Er00         [12]  413 	ld	hl, #(_shadow_OAM + 14)
      00018A 36 06            [12]  414 	ld	(hl), #0x06
      00018C 21r12r00         [12]  415 	ld	hl, #(_shadow_OAM + 18)
      00018F 36 08            [12]  416 	ld	(hl), #0x08
      000191 21r16r00         [12]  417 	ld	hl, #(_shadow_OAM + 22)
      000194 36 0A            [12]  418 	ld	(hl), #0x0a
      000196 21r1Ar00         [12]  419 	ld	hl, #(_shadow_OAM + 26)
      000199 36 0C            [12]  420 	ld	(hl), #0x0c
      00019B 21r1Er00         [12]  421 	ld	hl, #(_shadow_OAM + 30)
      00019E 36 0E            [12]  422 	ld	(hl), #0x0e
                           0001A0   423 	C$animate.c$74$1_0$135	= .
                                    424 	.globl	C$animate.c$74$1_0$135
                                    425 ;src/animate.c:74: set_sprite_tile(7, 14);
      0001A0 18 28            [12]  426 	jr	00134$
      0001A2                        427 00103$:
                                    428 ;C:/Users/JennyR/Documents/Nikku4211Archive/GBA/GBDev/GBDK/include/gb/gb.h:1602: shadow_OAM[nb].tile=tile;
      0001A2 21r02r00         [12]  429 	ld	hl, #(_shadow_OAM + 2)
      0001A5 36 10            [12]  430 	ld	(hl), #0x10
      0001A7 21r06r00         [12]  431 	ld	hl, #(_shadow_OAM + 6)
      0001AA 36 12            [12]  432 	ld	(hl), #0x12
      0001AC 21r0Ar00         [12]  433 	ld	hl, #(_shadow_OAM + 10)
      0001AF 36 14            [12]  434 	ld	(hl), #0x14
      0001B1 21r0Er00         [12]  435 	ld	hl, #(_shadow_OAM + 14)
      0001B4 36 16            [12]  436 	ld	(hl), #0x16
      0001B6 21r12r00         [12]  437 	ld	hl, #(_shadow_OAM + 18)
      0001B9 36 18            [12]  438 	ld	(hl), #0x18
      0001BB 21r16r00         [12]  439 	ld	hl, #(_shadow_OAM + 22)
      0001BE 36 1A            [12]  440 	ld	(hl), #0x1a
      0001C0 21r1Ar00         [12]  441 	ld	hl, #(_shadow_OAM + 26)
      0001C3 36 1C            [12]  442 	ld	(hl), #0x1c
      0001C5 21r1Er00         [12]  443 	ld	hl, #(_shadow_OAM + 30)
      0001C8 36 1E            [12]  444 	ld	(hl), #0x1e
                           0001CA   445 	C$animate.c$87$2_0$135	= .
                                    446 	.globl	C$animate.c$87$2_0$135
                                    447 ;src/animate.c:87: for (uint8_t i = 0; i < 8; i++) {
      0001CA                        448 00134$:
      0001CA 0E 00            [ 8]  449 	ld	c, #0x00
      0001CC                        450 00126$:
      0001CC 79               [ 4]  451 	ld	a, c
      0001CD D6 08            [ 8]  452 	sub	a, #0x08
      0001CF 30 2B            [12]  453 	jr	NC, 00128$
                           0001D1   454 	C$animate.c$88$3_0$141	= .
                                    455 	.globl	C$animate.c$88$3_0$141
                                    456 ;src/animate.c:88: player_tile_y_offset[i]=smyoffsets[(spritemap_index<<3)+i];
      0001D1 11r00r00         [12]  457 	ld	de, #_player_tile_y_offset
      0001D4 69               [ 4]  458 	ld	l, c
      0001D5 26 00            [ 8]  459 	ld	h, #0x00
      0001D7 19               [ 8]  460 	add	hl, de
      0001D8 E5               [16]  461 	push	hl
      0001D9 7D               [ 4]  462 	ld	a, l
      0001DA F8 04            [12]  463 	ldhl	sp,	#4
      0001DC 77               [ 8]  464 	ld	(hl), a
      0001DD E1               [12]  465 	pop	hl
      0001DE 7C               [ 4]  466 	ld	a, h
      0001DF F8 03            [12]  467 	ldhl	sp,	#3
      0001E1 22               [ 8]  468 	ld	(hl+), a
      0001E2 6E               [ 8]  469 	ld	l, (hl)
      0001E3 26 00            [ 8]  470 	ld	h, #0x00
      0001E5 29               [ 8]  471 	add	hl, hl
      0001E6 29               [ 8]  472 	add	hl, hl
      0001E7 29               [ 8]  473 	add	hl, hl
      0001E8 59               [ 4]  474 	ld	e, c
      0001E9 16 00            [ 8]  475 	ld	d, #0x00
      0001EB 19               [ 8]  476 	add	hl, de
      0001EC 5D               [ 4]  477 	ld	e, l
      0001ED 54               [ 4]  478 	ld	d, h
      0001EE 21r00r00         [12]  479 	ld	hl, #_smyoffsets
      0001F1 19               [ 8]  480 	add	hl, de
      0001F2 46               [ 8]  481 	ld	b, (hl)
      0001F3 F8 02            [12]  482 	ldhl	sp,	#2
      0001F5 2A               [ 8]  483 	ld	a,	(hl+)
      0001F6 66               [ 8]  484 	ld	h, (hl)
      0001F7 6F               [ 4]  485 	ld	l, a
      0001F8 70               [ 8]  486 	ld	(hl), b
                           0001F9   487 	C$animate.c$87$2_0$140	= .
                                    488 	.globl	C$animate.c$87$2_0$140
                                    489 ;src/animate.c:87: for (uint8_t i = 0; i < 8; i++) {
      0001F9 0C               [ 4]  490 	inc	c
      0001FA 18 D0            [12]  491 	jr	00126$
      0001FC                        492 00128$:
                           0001FC   493 	C$animate.c$90$2_0$135	= .
                                    494 	.globl	C$animate.c$90$2_0$135
                                    495 ;src/animate.c:90: }
      0001FC E8 06            [16]  496 	add	sp, #6
                           0001FE   497 	C$animate.c$90$2_0$135	= .
                                    498 	.globl	C$animate.c$90$2_0$135
                           0001FE   499 	XG$setPlayerFrameMap$0$0	= .
                                    500 	.globl	XG$setPlayerFrameMap$0$0
      0001FE C9               [16]  501 	ret
                           0001FF   502 	G$animatePlayer$0$0	= .
                                    503 	.globl	G$animatePlayer$0$0
                           0001FF   504 	C$animate.c$92$2_0$190	= .
                                    505 	.globl	C$animate.c$92$2_0$190
                                    506 ;src/animate.c:92: void animatePlayer(){
                                    507 ;	---------------------------------
                                    508 ; Function animatePlayer
                                    509 ; ---------------------------------
      0001FF                        510 _animatePlayer::
      0001FF 3B               [ 8]  511 	dec	sp
                           000200   512 	C$animate.c$93$1_0$190	= .
                                    513 	.globl	C$animate.c$93$1_0$190
                                    514 ;src/animate.c:93: if (frame_rate_counter==0){
      000200 FAr00r00         [16]  515 	ld	a, (#_frame_rate_counter)
      000203 B7               [ 4]  516 	or	a, a
      000204 C2r93r03         [16]  517 	jp	NZ, 00147$
                           000207   518 	C$animate.c$99$1_0$190	= .
                                    519 	.globl	C$animate.c$99$1_0$190
                                    520 ;src/animate.c:99: switch(player_animation_frame){
      000207 FAr00r00         [16]  521 	ld	a, (#_player_animation_frame)
      00020A B7               [ 4]  522 	or	a, a
      00020B 3E 01            [ 8]  523 	ld	a, #0x01
      00020D 28 01            [12]  524 	jr	Z, 00297$
      00020F AF               [ 4]  525 	xor	a, a
      000210                        526 00297$:
      000210 47               [ 4]  527 	ld	b, a
      000211 FAr00r00         [16]  528 	ld	a, (#_player_animation_frame)
      000214 3D               [ 4]  529 	dec	a
      000215 3E 01            [ 8]  530 	ld	a, #0x01
      000217 28 01            [12]  531 	jr	Z, 00299$
      000219 AF               [ 4]  532 	xor	a, a
      00021A                        533 00299$:
      00021A F8 00            [12]  534 	ldhl	sp,	#0
      00021C 77               [ 8]  535 	ld	(hl), a
      00021D FAr00r00         [16]  536 	ld	a, (#_player_animation_frame)
      000220 D6 02            [ 8]  537 	sub	a, #0x02
      000222 3E 01            [ 8]  538 	ld	a, #0x01
      000224 28 01            [12]  539 	jr	Z, 00301$
      000226 AF               [ 4]  540 	xor	a, a
      000227                        541 00301$:
      000227 57               [ 4]  542 	ld	d, a
      000228 FAr00r00         [16]  543 	ld	a, (#_player_animation_frame)
      00022B D6 03            [ 8]  544 	sub	a, #0x03
      00022D 3E 01            [ 8]  545 	ld	a, #0x01
      00022F 28 01            [12]  546 	jr	Z, 00303$
      000231 AF               [ 4]  547 	xor	a, a
      000232                        548 00303$:
      000232 5F               [ 4]  549 	ld	e, a
                           000233   550 	C$animate.c$116$1_0$190	= .
                                    551 	.globl	C$animate.c$116$1_0$190
                                    552 ;src/animate.c:116: } else if (player_direction == 1){
      000233 FAr00r00         [16]  553 	ld	a, (#_player_direction)
      000236 3D               [ 4]  554 	dec	a
      000237 3E 01            [ 8]  555 	ld	a, #0x01
      000239 28 01            [12]  556 	jr	Z, 00305$
      00023B AF               [ 4]  557 	xor	a, a
      00023C                        558 00305$:
      00023C 4F               [ 4]  559 	ld	c, a
                           00023D   560 	C$animate.c$95$2_0$191	= .
                                    561 	.globl	C$animate.c$95$2_0$191
                                    562 ;src/animate.c:95: if (player_attack){
      00023D 21r00r00         [12]  563 	ld	hl, #_player_attack
      000240 CB 46            [12]  564 	bit	0, (hl)
      000242 CArD7r02         [16]  565 	jp	Z, 00144$
                           000245   566 	C$animate.c$96$3_0$192	= .
                                    567 	.globl	C$animate.c$96$3_0$192
                                    568 ;src/animate.c:96: player_idle=FALSE;
      000245 21r00r00         [12]  569 	ld	hl, #_player_idle
      000248 36 00            [12]  570 	ld	(hl), #0x00
                           00024A   571 	C$animate.c$97$3_0$192	= .
                                    572 	.globl	C$animate.c$97$3_0$192
                                    573 ;src/animate.c:97: frame_rate_divisor=3;
      00024A 21r00r00         [12]  574 	ld	hl, #_frame_rate_divisor
      00024D 36 03            [12]  575 	ld	(hl), #0x03
                           00024F   576 	C$animate.c$98$3_0$192	= .
                                    577 	.globl	C$animate.c$98$3_0$192
                                    578 ;src/animate.c:98: if (player_direction == 0){
      00024F FAr00r00         [16]  579 	ld	a, (#_player_direction)
                           000252   580 	C$animate.c$99$4_0$193	= .
                                    581 	.globl	C$animate.c$99$4_0$193
                                    582 ;src/animate.c:99: switch(player_animation_frame){
      000252 B7               [ 4]  583 	or	a,a
      000253 20 3E            [12]  584 	jr	NZ, 00116$
      000255 B0               [ 4]  585 	or	a,b
      000256 20 0E            [12]  586 	jr	NZ, 00101$
      000258 F8 00            [12]  587 	ldhl	sp,	#0
      00025A 7E               [ 8]  588 	ld	a, (hl)
      00025B B7               [ 4]  589 	or	a,a
      00025C 20 10            [12]  590 	jr	NZ, 00102$
      00025E B2               [ 4]  591 	or	a,d
      00025F 20 15            [12]  592 	jr	NZ, 00103$
      000261 B3               [ 4]  593 	or	a,e
      000262 20 1A            [12]  594 	jr	NZ, 00104$
      000264 18 25            [12]  595 	jr	00105$
                           000266   596 	C$animate.c$100$5_0$194	= .
                                    597 	.globl	C$animate.c$100$5_0$194
                                    598 ;src/animate.c:100: case 0:
      000266                        599 00101$:
                           000266   600 	C$animate.c$101$5_0$194	= .
                                    601 	.globl	C$animate.c$101$5_0$194
                                    602 ;src/animate.c:101: setPlayerFrameMap(playattackleft1);
      000266 3E 05            [ 8]  603 	ld	a, #0x05
      000268 CDr1Dr01         [24]  604 	call	_setPlayerFrameMap
                           00026B   605 	C$animate.c$102$5_0$194	= .
                                    606 	.globl	C$animate.c$102$5_0$194
                                    607 ;src/animate.c:102: break;
      00026B C3r93r03         [16]  608 	jp	00147$
                           00026E   609 	C$animate.c$103$5_0$194	= .
                                    610 	.globl	C$animate.c$103$5_0$194
                                    611 ;src/animate.c:103: case 1:
      00026E                        612 00102$:
                           00026E   613 	C$animate.c$104$5_0$194	= .
                                    614 	.globl	C$animate.c$104$5_0$194
                                    615 ;src/animate.c:104: setPlayerFrameMap(playattackleft2);
      00026E 3E 06            [ 8]  616 	ld	a, #0x06
      000270 CDr1Dr01         [24]  617 	call	_setPlayerFrameMap
                           000273   618 	C$animate.c$105$5_0$194	= .
                                    619 	.globl	C$animate.c$105$5_0$194
                                    620 ;src/animate.c:105: break;
      000273 C3r93r03         [16]  621 	jp	00147$
                           000276   622 	C$animate.c$106$5_0$194	= .
                                    623 	.globl	C$animate.c$106$5_0$194
                                    624 ;src/animate.c:106: case 2:
      000276                        625 00103$:
                           000276   626 	C$animate.c$107$5_0$194	= .
                                    627 	.globl	C$animate.c$107$5_0$194
                                    628 ;src/animate.c:107: setPlayerFrameMap(playattackleft3);
      000276 3E 07            [ 8]  629 	ld	a, #0x07
      000278 CDr1Dr01         [24]  630 	call	_setPlayerFrameMap
                           00027B   631 	C$animate.c$108$5_0$194	= .
                                    632 	.globl	C$animate.c$108$5_0$194
                                    633 ;src/animate.c:108: break;
      00027B C3r93r03         [16]  634 	jp	00147$
                           00027E   635 	C$animate.c$109$5_0$194	= .
                                    636 	.globl	C$animate.c$109$5_0$194
                                    637 ;src/animate.c:109: case 3:
      00027E                        638 00104$:
                           00027E   639 	C$animate.c$110$5_0$194	= .
                                    640 	.globl	C$animate.c$110$5_0$194
                                    641 ;src/animate.c:110: setPlayerFrameMap(playattackleft3);
      00027E 3E 07            [ 8]  642 	ld	a, #0x07
      000280 CDr1Dr01         [24]  643 	call	_setPlayerFrameMap
                           000283   644 	C$animate.c$111$5_0$194	= .
                                    645 	.globl	C$animate.c$111$5_0$194
                                    646 ;src/animate.c:111: player_attack = FALSE;
      000283 21r00r00         [12]  647 	ld	hl, #_player_attack
      000286 36 00            [12]  648 	ld	(hl), #0x00
                           000288   649 	C$animate.c$112$5_0$194	= .
                                    650 	.globl	C$animate.c$112$5_0$194
                                    651 ;src/animate.c:112: break;
      000288 C3r93r03         [16]  652 	jp	00147$
                           00028B   653 	C$animate.c$113$5_0$194	= .
                                    654 	.globl	C$animate.c$113$5_0$194
                                    655 ;src/animate.c:113: default:
      00028B                        656 00105$:
                           00028B   657 	C$animate.c$114$5_0$194	= .
                                    658 	.globl	C$animate.c$114$5_0$194
                                    659 ;src/animate.c:114: setPlayerFrameMap(playattackleft1);
      00028B 3E 05            [ 8]  660 	ld	a, #0x05
      00028D CDr1Dr01         [24]  661 	call	_setPlayerFrameMap
                           000290   662 	C$animate.c$115$3_0$192	= .
                                    663 	.globl	C$animate.c$115$3_0$192
                                    664 ;src/animate.c:115: }
      000290 C3r93r03         [16]  665 	jp	00147$
      000293                        666 00116$:
                           000293   667 	C$animate.c$116$3_0$192	= .
                                    668 	.globl	C$animate.c$116$3_0$192
                                    669 ;src/animate.c:116: } else if (player_direction == 1){
      000293 79               [ 4]  670 	ld	a, c
      000294 B7               [ 4]  671 	or	a, a
      000295 CAr93r03         [16]  672 	jp	Z, 00147$
                           000298   673 	C$animate.c$117$4_0$195	= .
                                    674 	.globl	C$animate.c$117$4_0$195
                                    675 ;src/animate.c:117: switch(player_animation_frame){
      000298 78               [ 4]  676 	ld	a, b
      000299 B7               [ 4]  677 	or	a, a
      00029A 20 0E            [12]  678 	jr	NZ, 00107$
      00029C F8 00            [12]  679 	ldhl	sp,	#0
      00029E 7E               [ 8]  680 	ld	a, (hl)
      00029F B7               [ 4]  681 	or	a,a
      0002A0 20 10            [12]  682 	jr	NZ, 00108$
      0002A2 B2               [ 4]  683 	or	a,d
      0002A3 20 15            [12]  684 	jr	NZ, 00109$
      0002A5 B3               [ 4]  685 	or	a,e
      0002A6 20 1A            [12]  686 	jr	NZ, 00110$
      0002A8 18 25            [12]  687 	jr	00111$
                           0002AA   688 	C$animate.c$118$5_0$196	= .
                                    689 	.globl	C$animate.c$118$5_0$196
                                    690 ;src/animate.c:118: case 0:
      0002AA                        691 00107$:
                           0002AA   692 	C$animate.c$119$5_0$196	= .
                                    693 	.globl	C$animate.c$119$5_0$196
                                    694 ;src/animate.c:119: setPlayerFrameMap(playattackright1);
      0002AA 3E 0D            [ 8]  695 	ld	a, #0x0d
      0002AC CDr1Dr01         [24]  696 	call	_setPlayerFrameMap
                           0002AF   697 	C$animate.c$120$5_0$196	= .
                                    698 	.globl	C$animate.c$120$5_0$196
                                    699 ;src/animate.c:120: break;
      0002AF C3r93r03         [16]  700 	jp	00147$
                           0002B2   701 	C$animate.c$121$5_0$196	= .
                                    702 	.globl	C$animate.c$121$5_0$196
                                    703 ;src/animate.c:121: case 1:
      0002B2                        704 00108$:
                           0002B2   705 	C$animate.c$122$5_0$196	= .
                                    706 	.globl	C$animate.c$122$5_0$196
                                    707 ;src/animate.c:122: setPlayerFrameMap(playattackright2);
      0002B2 3E 0E            [ 8]  708 	ld	a, #0x0e
      0002B4 CDr1Dr01         [24]  709 	call	_setPlayerFrameMap
                           0002B7   710 	C$animate.c$123$5_0$196	= .
                                    711 	.globl	C$animate.c$123$5_0$196
                                    712 ;src/animate.c:123: break;
      0002B7 C3r93r03         [16]  713 	jp	00147$
                           0002BA   714 	C$animate.c$124$5_0$196	= .
                                    715 	.globl	C$animate.c$124$5_0$196
                                    716 ;src/animate.c:124: case 2:
      0002BA                        717 00109$:
                           0002BA   718 	C$animate.c$125$5_0$196	= .
                                    719 	.globl	C$animate.c$125$5_0$196
                                    720 ;src/animate.c:125: setPlayerFrameMap(playattackright3);
      0002BA 3E 0F            [ 8]  721 	ld	a, #0x0f
      0002BC CDr1Dr01         [24]  722 	call	_setPlayerFrameMap
                           0002BF   723 	C$animate.c$126$5_0$196	= .
                                    724 	.globl	C$animate.c$126$5_0$196
                                    725 ;src/animate.c:126: break;
      0002BF C3r93r03         [16]  726 	jp	00147$
                           0002C2   727 	C$animate.c$127$5_0$196	= .
                                    728 	.globl	C$animate.c$127$5_0$196
                                    729 ;src/animate.c:127: case 3:
      0002C2                        730 00110$:
                           0002C2   731 	C$animate.c$128$5_0$196	= .
                                    732 	.globl	C$animate.c$128$5_0$196
                                    733 ;src/animate.c:128: setPlayerFrameMap(playattackright3);
      0002C2 3E 0F            [ 8]  734 	ld	a, #0x0f
      0002C4 CDr1Dr01         [24]  735 	call	_setPlayerFrameMap
                           0002C7   736 	C$animate.c$129$5_0$196	= .
                                    737 	.globl	C$animate.c$129$5_0$196
                                    738 ;src/animate.c:129: player_attack = FALSE;
      0002C7 21r00r00         [12]  739 	ld	hl, #_player_attack
      0002CA 36 00            [12]  740 	ld	(hl), #0x00
                           0002CC   741 	C$animate.c$130$5_0$196	= .
                                    742 	.globl	C$animate.c$130$5_0$196
                                    743 ;src/animate.c:130: break;
      0002CC C3r93r03         [16]  744 	jp	00147$
                           0002CF   745 	C$animate.c$131$5_0$196	= .
                                    746 	.globl	C$animate.c$131$5_0$196
                                    747 ;src/animate.c:131: default:
      0002CF                        748 00111$:
                           0002CF   749 	C$animate.c$132$5_0$196	= .
                                    750 	.globl	C$animate.c$132$5_0$196
                                    751 ;src/animate.c:132: setPlayerFrameMap(playattackright1);
      0002CF 3E 0D            [ 8]  752 	ld	a, #0x0d
      0002D1 CDr1Dr01         [24]  753 	call	_setPlayerFrameMap
                           0002D4   754 	C$animate.c$133$2_0$191	= .
                                    755 	.globl	C$animate.c$133$2_0$191
                                    756 ;src/animate.c:133: }
      0002D4 C3r93r03         [16]  757 	jp	00147$
      0002D7                        758 00144$:
                           0002D7   759 	C$animate.c$137$3_0$197	= .
                                    760 	.globl	C$animate.c$137$3_0$197
                                    761 ;src/animate.c:137: if (player_move_left) {
      0002D7 21r00r00         [12]  762 	ld	hl, #_player_move_left
      0002DA CB 46            [12]  763 	bit	0, (hl)
      0002DC 28 42            [12]  764 	jr	Z, 00141$
                           0002DE   765 	C$animate.c$138$4_0$198	= .
                                    766 	.globl	C$animate.c$138$4_0$198
                                    767 ;src/animate.c:138: player_idle = FALSE;
      0002DE 21r00r00         [12]  768 	ld	hl, #_player_idle
      0002E1 36 00            [12]  769 	ld	(hl), #0x00
                           0002E3   770 	C$animate.c$139$4_0$198	= .
                                    771 	.globl	C$animate.c$139$4_0$198
                                    772 ;src/animate.c:139: frame_rate_divisor=6;
      0002E3 21r00r00         [12]  773 	ld	hl, #_frame_rate_divisor
      0002E6 36 06            [12]  774 	ld	(hl), #0x06
                           0002E8   775 	C$animate.c$140$4_0$198	= .
                                    776 	.globl	C$animate.c$140$4_0$198
                                    777 ;src/animate.c:140: switch(player_animation_frame){
      0002E8 78               [ 4]  778 	ld	a, b
      0002E9 B7               [ 4]  779 	or	a, a
      0002EA 20 0E            [12]  780 	jr	NZ, 00118$
      0002EC F8 00            [12]  781 	ldhl	sp,	#0
      0002EE 7E               [ 8]  782 	ld	a, (hl)
      0002EF B7               [ 4]  783 	or	a,a
      0002F0 20 10            [12]  784 	jr	NZ, 00119$
      0002F2 B2               [ 4]  785 	or	a,d
      0002F3 20 15            [12]  786 	jr	NZ, 00120$
      0002F5 B3               [ 4]  787 	or	a,e
      0002F6 20 1A            [12]  788 	jr	NZ, 00121$
      0002F8 18 1F            [12]  789 	jr	00122$
                           0002FA   790 	C$animate.c$141$5_0$199	= .
                                    791 	.globl	C$animate.c$141$5_0$199
                                    792 ;src/animate.c:141: case 0:
      0002FA                        793 00118$:
                           0002FA   794 	C$animate.c$142$5_0$199	= .
                                    795 	.globl	C$animate.c$142$5_0$199
                                    796 ;src/animate.c:142: setPlayerFrameMap(playwalkleft1);
      0002FA 3E 01            [ 8]  797 	ld	a, #0x01
      0002FC CDr1Dr01         [24]  798 	call	_setPlayerFrameMap
                           0002FF   799 	C$animate.c$143$5_0$199	= .
                                    800 	.globl	C$animate.c$143$5_0$199
                                    801 ;src/animate.c:143: break;
      0002FF C3r93r03         [16]  802 	jp	00147$
                           000302   803 	C$animate.c$144$5_0$199	= .
                                    804 	.globl	C$animate.c$144$5_0$199
                                    805 ;src/animate.c:144: case 1:
      000302                        806 00119$:
                           000302   807 	C$animate.c$145$5_0$199	= .
                                    808 	.globl	C$animate.c$145$5_0$199
                                    809 ;src/animate.c:145: setPlayerFrameMap(playwalkleft2);
      000302 3E 02            [ 8]  810 	ld	a, #0x02
      000304 CDr1Dr01         [24]  811 	call	_setPlayerFrameMap
                           000307   812 	C$animate.c$146$5_0$199	= .
                                    813 	.globl	C$animate.c$146$5_0$199
                                    814 ;src/animate.c:146: break;
      000307 C3r93r03         [16]  815 	jp	00147$
                           00030A   816 	C$animate.c$147$5_0$199	= .
                                    817 	.globl	C$animate.c$147$5_0$199
                                    818 ;src/animate.c:147: case 2:
      00030A                        819 00120$:
                           00030A   820 	C$animate.c$148$5_0$199	= .
                                    821 	.globl	C$animate.c$148$5_0$199
                                    822 ;src/animate.c:148: setPlayerFrameMap(playwalkleft3);
      00030A 3E 03            [ 8]  823 	ld	a, #0x03
      00030C CDr1Dr01         [24]  824 	call	_setPlayerFrameMap
                           00030F   825 	C$animate.c$149$5_0$199	= .
                                    826 	.globl	C$animate.c$149$5_0$199
                                    827 ;src/animate.c:149: break;
      00030F C3r93r03         [16]  828 	jp	00147$
                           000312   829 	C$animate.c$150$5_0$199	= .
                                    830 	.globl	C$animate.c$150$5_0$199
                                    831 ;src/animate.c:150: case 3:
      000312                        832 00121$:
                           000312   833 	C$animate.c$151$5_0$199	= .
                                    834 	.globl	C$animate.c$151$5_0$199
                                    835 ;src/animate.c:151: setPlayerFrameMap(playwalkleft4);
      000312 3E 04            [ 8]  836 	ld	a, #0x04
      000314 CDr1Dr01         [24]  837 	call	_setPlayerFrameMap
                           000317   838 	C$animate.c$152$5_0$199	= .
                                    839 	.globl	C$animate.c$152$5_0$199
                                    840 ;src/animate.c:152: break;
      000317 18 7A            [12]  841 	jr	00147$
                           000319   842 	C$animate.c$153$5_0$199	= .
                                    843 	.globl	C$animate.c$153$5_0$199
                                    844 ;src/animate.c:153: default:
      000319                        845 00122$:
                           000319   846 	C$animate.c$154$5_0$199	= .
                                    847 	.globl	C$animate.c$154$5_0$199
                                    848 ;src/animate.c:154: setPlayerFrameMap(playwalkleft1);
      000319 3E 01            [ 8]  849 	ld	a, #0x01
      00031B CDr1Dr01         [24]  850 	call	_setPlayerFrameMap
                           00031E   851 	C$animate.c$155$3_0$197	= .
                                    852 	.globl	C$animate.c$155$3_0$197
                                    853 ;src/animate.c:155: }
      00031E 18 73            [12]  854 	jr	00147$
      000320                        855 00141$:
                           000320   856 	C$animate.c$156$3_0$197	= .
                                    857 	.globl	C$animate.c$156$3_0$197
                                    858 ;src/animate.c:156: } else if (player_move_right) {
      000320 21r00r00         [12]  859 	ld	hl, #_player_move_right
      000323 CB 46            [12]  860 	bit	0, (hl)
      000325 28 3F            [12]  861 	jr	Z, 00138$
                           000327   862 	C$animate.c$157$4_0$200	= .
                                    863 	.globl	C$animate.c$157$4_0$200
                                    864 ;src/animate.c:157: player_idle = FALSE;
      000327 21r00r00         [12]  865 	ld	hl, #_player_idle
      00032A 36 00            [12]  866 	ld	(hl), #0x00
                           00032C   867 	C$animate.c$158$4_0$200	= .
                                    868 	.globl	C$animate.c$158$4_0$200
                                    869 ;src/animate.c:158: frame_rate_divisor=6;
      00032C 21r00r00         [12]  870 	ld	hl, #_frame_rate_divisor
      00032F 36 06            [12]  871 	ld	(hl), #0x06
                           000331   872 	C$animate.c$159$4_0$200	= .
                                    873 	.globl	C$animate.c$159$4_0$200
                                    874 ;src/animate.c:159: switch(player_animation_frame){
      000331 78               [ 4]  875 	ld	a, b
      000332 B7               [ 4]  876 	or	a, a
      000333 20 0E            [12]  877 	jr	NZ, 00124$
      000335 F8 00            [12]  878 	ldhl	sp,	#0
      000337 7E               [ 8]  879 	ld	a, (hl)
      000338 B7               [ 4]  880 	or	a,a
      000339 20 0F            [12]  881 	jr	NZ, 00125$
      00033B B2               [ 4]  882 	or	a,d
      00033C 20 13            [12]  883 	jr	NZ, 00126$
      00033E B3               [ 4]  884 	or	a,e
      00033F 20 17            [12]  885 	jr	NZ, 00127$
      000341 18 1C            [12]  886 	jr	00128$
                           000343   887 	C$animate.c$160$5_0$201	= .
                                    888 	.globl	C$animate.c$160$5_0$201
                                    889 ;src/animate.c:160: case 0:
      000343                        890 00124$:
                           000343   891 	C$animate.c$161$5_0$201	= .
                                    892 	.globl	C$animate.c$161$5_0$201
                                    893 ;src/animate.c:161: setPlayerFrameMap(playwalkright1);
      000343 3E 09            [ 8]  894 	ld	a, #0x09
      000345 CDr1Dr01         [24]  895 	call	_setPlayerFrameMap
                           000348   896 	C$animate.c$162$5_0$201	= .
                                    897 	.globl	C$animate.c$162$5_0$201
                                    898 ;src/animate.c:162: break;
      000348 18 49            [12]  899 	jr	00147$
                           00034A   900 	C$animate.c$163$5_0$201	= .
                                    901 	.globl	C$animate.c$163$5_0$201
                                    902 ;src/animate.c:163: case 1:
      00034A                        903 00125$:
                           00034A   904 	C$animate.c$164$5_0$201	= .
                                    905 	.globl	C$animate.c$164$5_0$201
                                    906 ;src/animate.c:164: setPlayerFrameMap(playwalkright2);
      00034A 3E 0A            [ 8]  907 	ld	a, #0x0a
      00034C CDr1Dr01         [24]  908 	call	_setPlayerFrameMap
                           00034F   909 	C$animate.c$165$5_0$201	= .
                                    910 	.globl	C$animate.c$165$5_0$201
                                    911 ;src/animate.c:165: break;
      00034F 18 42            [12]  912 	jr	00147$
                           000351   913 	C$animate.c$166$5_0$201	= .
                                    914 	.globl	C$animate.c$166$5_0$201
                                    915 ;src/animate.c:166: case 2:
      000351                        916 00126$:
                           000351   917 	C$animate.c$167$5_0$201	= .
                                    918 	.globl	C$animate.c$167$5_0$201
                                    919 ;src/animate.c:167: setPlayerFrameMap(playwalkright3);
      000351 3E 0B            [ 8]  920 	ld	a, #0x0b
      000353 CDr1Dr01         [24]  921 	call	_setPlayerFrameMap
                           000356   922 	C$animate.c$168$5_0$201	= .
                                    923 	.globl	C$animate.c$168$5_0$201
                                    924 ;src/animate.c:168: break;
      000356 18 3B            [12]  925 	jr	00147$
                           000358   926 	C$animate.c$169$5_0$201	= .
                                    927 	.globl	C$animate.c$169$5_0$201
                                    928 ;src/animate.c:169: case 3:
      000358                        929 00127$:
                           000358   930 	C$animate.c$170$5_0$201	= .
                                    931 	.globl	C$animate.c$170$5_0$201
                                    932 ;src/animate.c:170: setPlayerFrameMap(playwalkright4);
      000358 3E 0C            [ 8]  933 	ld	a, #0x0c
      00035A CDr1Dr01         [24]  934 	call	_setPlayerFrameMap
                           00035D   935 	C$animate.c$171$5_0$201	= .
                                    936 	.globl	C$animate.c$171$5_0$201
                                    937 ;src/animate.c:171: break;
      00035D 18 34            [12]  938 	jr	00147$
                           00035F   939 	C$animate.c$172$5_0$201	= .
                                    940 	.globl	C$animate.c$172$5_0$201
                                    941 ;src/animate.c:172: default:
      00035F                        942 00128$:
                           00035F   943 	C$animate.c$173$5_0$201	= .
                                    944 	.globl	C$animate.c$173$5_0$201
                                    945 ;src/animate.c:173: setPlayerFrameMap(playwalkright1);
      00035F 3E 09            [ 8]  946 	ld	a, #0x09
      000361 CDr1Dr01         [24]  947 	call	_setPlayerFrameMap
                           000364   948 	C$animate.c$174$3_0$197	= .
                                    949 	.globl	C$animate.c$174$3_0$197
                                    950 ;src/animate.c:174: } 
      000364 18 2D            [12]  951 	jr	00147$
      000366                        952 00138$:
                           000366   953 	C$animate.c$177$4_0$202	= .
                                    954 	.globl	C$animate.c$177$4_0$202
                                    955 ;src/animate.c:177: if (player_direction == 1 && player_idle == FALSE) {
      000366 79               [ 4]  956 	ld	a, c
      000367 B7               [ 4]  957 	or	a, a
      000368 28 13            [12]  958 	jr	Z, 00134$
      00036A 21r00r00         [12]  959 	ld	hl, #_player_idle
      00036D CB 46            [12]  960 	bit	0, (hl)
      00036F 20 0C            [12]  961 	jr	NZ, 00134$
                           000371   962 	C$animate.c$178$5_0$203	= .
                                    963 	.globl	C$animate.c$178$5_0$203
                                    964 ;src/animate.c:178: setPlayerFrameMap(playidleright);
      000371 3E 08            [ 8]  965 	ld	a, #0x08
      000373 CDr1Dr01         [24]  966 	call	_setPlayerFrameMap
                           000376   967 	C$animate.c$179$5_0$203	= .
                                    968 	.globl	C$animate.c$179$5_0$203
                                    969 ;src/animate.c:179: player_idle = TRUE;
      000376 21r00r00         [12]  970 	ld	hl, #_player_idle
      000379 36 01            [12]  971 	ld	(hl), #0x01
      00037B 18 16            [12]  972 	jr	00147$
      00037D                        973 00134$:
                           00037D   974 	C$animate.c$180$4_0$202	= .
                                    975 	.globl	C$animate.c$180$4_0$202
                                    976 ;src/animate.c:180: } else if (player_direction == 0 && player_idle == FALSE) {
      00037D FAr00r00         [16]  977 	ld	a, (#_player_direction)
      000380 B7               [ 4]  978 	or	a, a
      000381 20 10            [12]  979 	jr	NZ, 00147$
      000383 21r00r00         [12]  980 	ld	hl, #_player_idle
      000386 CB 46            [12]  981 	bit	0, (hl)
      000388 20 09            [12]  982 	jr	NZ, 00147$
                           00038A   983 	C$animate.c$181$5_0$204	= .
                                    984 	.globl	C$animate.c$181$5_0$204
                                    985 ;src/animate.c:181: setPlayerFrameMap(playidleleft);
      00038A AF               [ 4]  986 	xor	a, a
      00038B CDr1Dr01         [24]  987 	call	_setPlayerFrameMap
                           00038E   988 	C$animate.c$182$5_0$204	= .
                                    989 	.globl	C$animate.c$182$5_0$204
                                    990 ;src/animate.c:182: player_idle = TRUE;
      00038E 21r00r00         [12]  991 	ld	hl, #_player_idle
      000391 36 01            [12]  992 	ld	(hl), #0x01
      000393                        993 00147$:
                           000393   994 	C$animate.c$188$1_0$190	= .
                                    995 	.globl	C$animate.c$188$1_0$190
                                    996 ;src/animate.c:188: if (player_animation_frame < 4) {
      000393 FAr00r00         [16]  997 	ld	a, (#_player_animation_frame)
      000396 D6 04            [ 8]  998 	sub	a, #0x04
      000398 30 16            [12]  999 	jr	NC, 00152$
                           00039A  1000 	C$animate.c$189$2_0$205	= .
                                   1001 	.globl	C$animate.c$189$2_0$205
                                   1002 ;src/animate.c:189: if (frame_rate_counter > 0) {
      00039A 21r00r00         [12] 1003 	ld	hl, #_frame_rate_counter
      00039D 7E               [ 8] 1004 	ld	a, (hl)
      00039E B7               [ 4] 1005 	or	a, a
      00039F 28 03            [12] 1006 	jr	Z, 00149$
                           0003A1  1007 	C$animate.c$190$3_0$206	= .
                                   1008 	.globl	C$animate.c$190$3_0$206
                                   1009 ;src/animate.c:190: frame_rate_counter--;
      0003A1 35               [12] 1010 	dec	(hl)
      0003A2 18 11            [12] 1011 	jr	00154$
      0003A4                       1012 00149$:
                           0003A4  1013 	C$animate.c$192$3_0$207	= .
                                   1014 	.globl	C$animate.c$192$3_0$207
                                   1015 ;src/animate.c:192: frame_rate_counter = frame_rate_divisor;
      0003A4 FAr00r00         [16] 1016 	ld	a, (#_frame_rate_divisor)
      0003A7 EAr00r00         [16] 1017 	ld	(#_frame_rate_counter),a
                           0003AA  1018 	C$animate.c$193$3_0$207	= .
                                   1019 	.globl	C$animate.c$193$3_0$207
                                   1020 ;src/animate.c:193: player_animation_frame++;
      0003AA 21r00r00         [12] 1021 	ld	hl, #_player_animation_frame
      0003AD 34               [12] 1022 	inc	(hl)
      0003AE 18 05            [12] 1023 	jr	00154$
      0003B0                       1024 00152$:
                           0003B0  1025 	C$animate.c$196$2_0$208	= .
                                   1026 	.globl	C$animate.c$196$2_0$208
                                   1027 ;src/animate.c:196: player_animation_frame = 0;
      0003B0 21r00r00         [12] 1028 	ld	hl, #_player_animation_frame
      0003B3 36 00            [12] 1029 	ld	(hl), #0x00
      0003B5                       1030 00154$:
                           0003B5  1031 	C$animate.c$198$1_0$190	= .
                                   1032 	.globl	C$animate.c$198$1_0$190
                                   1033 ;src/animate.c:198: }
      0003B5 33               [ 8] 1034 	inc	sp
                           0003B6  1035 	C$animate.c$198$1_0$190	= .
                                   1036 	.globl	C$animate.c$198$1_0$190
                           0003B6  1037 	XG$animatePlayer$0$0	= .
                                   1038 	.globl	XG$animatePlayer$0$0
      0003B6 C9               [16] 1039 	ret
                           0003B7  1040 	G$setEnemyFrameMap$0$0	= .
                                   1041 	.globl	G$setEnemyFrameMap$0$0
                           0003B7  1042 	C$animate.c$200$1_0$210	= .
                                   1043 	.globl	C$animate.c$200$1_0$210
                                   1044 ;src/animate.c:200: void setEnemyFrameMap(unsigned char enemy_frame_map[]) {
                                   1045 ;	---------------------------------
                                   1046 ; Function setEnemyFrameMap
                                   1047 ; ---------------------------------
      0003B7                       1048 _setEnemyFrameMap::
      0003B7 E8 FD            [16] 1049 	add	sp, #-3
      0003B9 4B               [ 4] 1050 	ld	c, e
      0003BA 42               [ 4] 1051 	ld	b, d
                           0003BB  1052 	C$animate.c$204$2_0$210	= .
                                   1053 	.globl	C$animate.c$204$2_0$210
                                   1054 ;src/animate.c:204: for (uint8_t i = 0; i < 4; i++) {
      0003BB F8 02            [12] 1055 	ldhl	sp,	#2
      0003BD 36 00            [12] 1056 	ld	(hl), #0x00
      0003BF                       1057 00105$:
      0003BF F8 02            [12] 1058 	ldhl	sp,	#2
      0003C1 7E               [ 8] 1059 	ld	a, (hl)
      0003C2 D6 04            [ 8] 1060 	sub	a, #0x04
      0003C4 30 25            [12] 1061 	jr	NC, 00101$
                                   1062 ;src/animate.c:205: set_sprite_tile(i+8, enemy_frame_map[(i<<2)]+32);
      0003C6 5E               [ 8] 1063 	ld	e, (hl)
      0003C7 16 00            [ 8] 1064 	ld	d, #0x00
      0003C9 6B               [ 4] 1065 	ld	l, e
      0003CA 62               [ 4] 1066 	ld	h, d
      0003CB 29               [ 8] 1067 	add	hl, hl
      0003CC 29               [ 8] 1068 	add	hl, hl
      0003CD 09               [ 8] 1069 	add	hl, bc
      0003CE 7E               [ 8] 1070 	ld	a, (hl)
      0003CF C6 20            [ 8] 1071 	add	a, #0x20
      0003D1 5F               [ 4] 1072 	ld	e, a
      0003D2 F8 02            [12] 1073 	ldhl	sp,	#2
      0003D4 7E               [ 8] 1074 	ld	a, (hl)
      0003D5 C6 08            [ 8] 1075 	add	a, #0x08
      0003D7 57               [ 4] 1076 	ld	d, a
                                   1077 ;C:/Users/JennyR/Documents/Nikku4211Archive/GBA/GBDev/GBDK/include/gb/gb.h:1602: shadow_OAM[nb].tile=tile;
      0003D8 6A               [ 4] 1078 	ld	l, d
                                   1079 ;	spillPairReg hl
                                   1080 ;	spillPairReg hl
      0003D9 26 00            [ 8] 1081 	ld	h, #0x00
                                   1082 ;	spillPairReg hl
                                   1083 ;	spillPairReg hl
      0003DB 29               [ 8] 1084 	add	hl, hl
      0003DC 29               [ 8] 1085 	add	hl, hl
      0003DD D5               [16] 1086 	push	de
      0003DE 11r00r00         [12] 1087 	ld	de, #_shadow_OAM
      0003E1 19               [ 8] 1088 	add	hl, de
      0003E2 23               [ 8] 1089 	inc	hl
      0003E3 23               [ 8] 1090 	inc	hl
      0003E4 D1               [12] 1091 	pop	de
      0003E5 73               [ 8] 1092 	ld	(hl), e
                           0003E6  1093 	C$animate.c$204$2_0$211	= .
                                   1094 	.globl	C$animate.c$204$2_0$211
                                   1095 ;src/animate.c:204: for (uint8_t i = 0; i < 4; i++) {
      0003E6 F8 02            [12] 1096 	ldhl	sp,	#2
      0003E8 34               [12] 1097 	inc	(hl)
      0003E9 18 D4            [12] 1098 	jr	00105$
      0003EB                       1099 00101$:
                           0003EB  1100 	C$animate.c$210$3_0$214	= .
                                   1101 	.globl	C$animate.c$210$3_0$214
                                   1102 ;src/animate.c:210: for (uint8_t i = 0; i < 8; i++) {
      0003EB F8 02            [12] 1103 	ldhl	sp,	#2
      0003ED 36 00            [12] 1104 	ld	(hl), #0x00
      0003EF                       1105 00108$:
      0003EF F8 02            [12] 1106 	ldhl	sp,	#2
      0003F1 7E               [ 8] 1107 	ld	a, (hl)
      0003F2 D6 08            [ 8] 1108 	sub	a, #0x08
      0003F4 30 1C            [12] 1109 	jr	NC, 00110$
                           0003F6  1110 	C$animate.c$211$3_0$214	= .
                                   1111 	.globl	C$animate.c$211$3_0$214
                                   1112 ;src/animate.c:211: enemy_tile_y_offset[i]=enemy_frame_map[(i<<2)+1];
      0003F6 11r00r00         [12] 1113 	ld	de, #_enemy_tile_y_offset
      0003F9 6E               [ 8] 1114 	ld	l, (hl)
      0003FA 26 00            [ 8] 1115 	ld	h, #0x00
      0003FC 19               [ 8] 1116 	add	hl, de
      0003FD 33               [ 8] 1117 	inc	sp
      0003FE 33               [ 8] 1118 	inc	sp
      0003FF E5               [16] 1119 	push	hl
      000400 F8 02            [12] 1120 	ldhl	sp,	#2
      000402 6E               [ 8] 1121 	ld	l, (hl)
      000403 26 00            [ 8] 1122 	ld	h, #0x00
      000405 29               [ 8] 1123 	add	hl, hl
      000406 29               [ 8] 1124 	add	hl, hl
      000407 23               [ 8] 1125 	inc	hl
      000408 09               [ 8] 1126 	add	hl, bc
      000409 7E               [ 8] 1127 	ld	a, (hl)
      00040A E1               [12] 1128 	pop	hl
      00040B E5               [16] 1129 	push	hl
      00040C 77               [ 8] 1130 	ld	(hl), a
                           00040D  1131 	C$animate.c$210$2_0$213	= .
                                   1132 	.globl	C$animate.c$210$2_0$213
                                   1133 ;src/animate.c:210: for (uint8_t i = 0; i < 8; i++) {
      00040D F8 02            [12] 1134 	ldhl	sp,	#2
      00040F 34               [12] 1135 	inc	(hl)
      000410 18 DD            [12] 1136 	jr	00108$
      000412                       1137 00110$:
                           000412  1138 	C$animate.c$213$2_0$210	= .
                                   1139 	.globl	C$animate.c$213$2_0$210
                                   1140 ;src/animate.c:213: }
      000412 E8 03            [16] 1141 	add	sp, #3
                           000414  1142 	C$animate.c$213$2_0$210	= .
                                   1143 	.globl	C$animate.c$213$2_0$210
                           000414  1144 	XG$setEnemyFrameMap$0$0	= .
                                   1145 	.globl	XG$setEnemyFrameMap$0$0
      000414 C9               [16] 1146 	ret
                                   1147 	.area _CODE
                                   1148 	.area _INITIALIZER
                                   1149 	.area _CABS (ABS)
